target datalayout = "e-m:e-p270:32:32-p271:32:32-p272:64:64-i64:64-i128:128-f80:128-n8:16:32:64-S128"
target triple = "x86_64-pc-linux-gnu"

%struct.ZSTD_customMem = type { ptr, ptr, ptr }
%struct.ZSTD_frameParameters = type { i32, i32, i32 }
%struct.ZSTD_compressionParameters = type { i32, i32, i32, i32, i32, i32, i32 }
%struct.ZSTD_CCtx_s = type { i32, i32, i32, %struct.ZSTD_CCtx_params_s, %struct.ZSTD_CCtx_params_s, %struct.ZSTD_CCtx_params_s, i32, i64, %struct.ZSTD_cwksp, i64, i64, i64, i64, %struct.XXH64_state_s, %struct.ZSTD_customMem, ptr, i64, %struct.SeqCollector, i32, i32, %struct.seqStore_t, %struct.ldmState_t, ptr, i64, %struct.rawSeqStore_t, %struct.ZSTD_blockState_t, ptr, i32, ptr, i64, i64, i64, i64, ptr, i64, i64, i64, i32, i32, %struct.ZSTD_inBuffer_s, i64, i64, %struct.ZSTD_localDict, ptr, %struct.ZSTD_prefixDict_s, i64, %struct.ZSTD_blockSplitCtx, %struct.ZSTD_externalMatchCtx }
%struct.ZSTD_CCtx_params_s = type { i32, %struct.ZSTD_compressionParameters, %struct.ZSTD_frameParameters, i32, i32, i64, i32, i32, i32, i32, i64, i32, i32, %struct.ldmParams_t, i32, i32, i32, i32, i32, i32, i32, i32, %struct.ZSTD_customMem, i32, i32, i32, i64, i32 }
%struct.ldmParams_t = type { i32, i32, i32, i32, i32, i32 }
%struct.ZSTD_cwksp = type { ptr, ptr, ptr, ptr, ptr, ptr, ptr, i8, i32, i32, i32 }
%struct.XXH64_state_s = type { i64, [4 x i64], [4 x i64], i32, i32, i64 }
%struct.SeqCollector = type { i32, ptr, i64, i64 }
%struct.seqStore_t = type { ptr, ptr, ptr, ptr, ptr, ptr, ptr, i64, i64, i32, i32 }
%struct.ldmState_t = type { %struct.ZSTD_window_t, ptr, i32, ptr, [64 x i64], [64 x %struct.ldmMatchCandidate_t] }
%struct.ZSTD_window_t = type { ptr, ptr, ptr, i32, i32, i32 }
%struct.ldmMatchCandidate_t = type { ptr, i32, i32, ptr }
%struct.rawSeqStore_t = type { ptr, i64, i64, i64, i64 }
%struct.ZSTD_blockState_t = type { ptr, ptr, %struct.ZSTD_matchState_t }
%struct.ZSTD_matchState_t = type { %struct.ZSTD_window_t, i32, i32, i32, i32, ptr, [8 x i32], i64, i32, ptr, ptr, ptr, i32, i32, %struct.optState_t, ptr, %struct.ZSTD_compressionParameters, ptr, i32, i32 }
%struct.optState_t = type { ptr, ptr, ptr, ptr, ptr, ptr, i32, i32, i32, i32, i32, i32, i32, i32, i32, ptr, i32 }
%struct.ZSTD_inBuffer_s = type { ptr, i64, i64 }
%struct.ZSTD_localDict = type { ptr, ptr, i64, i32, ptr }
%struct.ZSTD_prefixDict_s = type { ptr, i64, i32 }
%struct.ZSTD_blockSplitCtx = type { %struct.seqStore_t, %struct.seqStore_t, %struct.seqStore_t, %struct.seqStore_t, %struct.seqStore_t, [196 x i32], %struct.ZSTD_entropyCTablesMetadata_t }
%struct.ZSTD_entropyCTablesMetadata_t = type { %struct.ZSTD_hufCTablesMetadata_t, %struct.ZSTD_fseCTablesMetadata_t }
%struct.ZSTD_hufCTablesMetadata_t = type { i32, [128 x i8], i64 }
%struct.ZSTD_fseCTablesMetadata_t = type { i32, i32, i32, [133 x i8], i64, i64 }
%struct.ZSTD_externalMatchCtx = type { ptr, ptr, ptr, i64 }
%struct.ZSTD_cpuid_t = type { i32, i32, i32, i32 }

; Function Attrs: nounwind uwtable
define dso_local i64 @ZSTD_CCtxParams_init(ptr noundef %0, i32 noundef %1) #0 {
  %3 = alloca i64, align 8
  %4 = alloca ptr, align 8
  %5 = alloca i32, align 4
  store ptr %0, ptr %4, align 8
  store i32 %1, ptr %5, align 4
  %6 = load ptr, ptr %4, align 8
  %7 = icmp ne ptr %6, null
  br i1 %7, label %9, label %8

8:                                                ; preds = %2
  store i64 -1, ptr %3, align 8
  br label %17

9:                                                ; preds = %2
  %10 = load ptr, ptr %4, align 8
  call void @llvm.memset.p0.i64(ptr align 8 %10, i8 0, i64 208, i1 false)
  %11 = load i32, ptr %5, align 4
  %12 = load ptr, ptr %4, align 8
  %13 = getelementptr inbounds %struct.ZSTD_CCtx_params_s, ptr %12, i32 0, i32 3
  store i32 %11, ptr %13, align 4
  %14 = load ptr, ptr %4, align 8
  %15 = getelementptr inbounds %struct.ZSTD_CCtx_params_s, ptr %14, i32 0, i32 2
  %16 = getelementptr inbounds %struct.ZSTD_frameParameters, ptr %15, i32 0, i32 0
  store i32 1, ptr %16, align 8
  store i64 0, ptr %3, align 8
  br label %17

17:                                               ; preds = %9, %8
  %18 = load i64, ptr %3, align 8
  ret i64 %18
}

; Function Attrs: nounwind uwtable
define dso_local i64 @ZSTD_CCtxParams_reset(ptr noundef %0) #0 {
  %2 = alloca ptr, align 8
  store ptr %0, ptr %2, align 8
  %3 = load ptr, ptr %2, align 8
  %4 = call i64 @ZSTD_CCtxParams_init(ptr noundef %3, i32 noundef 3)
  ret i64 %4
}

; Function Attrs: nounwind uwtable
define internal i32 @ZSTD_cpuid_bmi2(i64 %0, i64 %1) #0 {
  %3 = alloca %struct.ZSTD_cpuid_t, align 4
  %4 = getelementptr inbounds { i64, i64 }, ptr %3, i32 0, i32 0
  store i64 %0, ptr %4, align 4
  %5 = getelementptr inbounds { i64, i64 }, ptr %3, i32 0, i32 1
  store i64 %1, ptr %5, align 4
  %6 = getelementptr inbounds %struct.ZSTD_cpuid_t, ptr %3, i32 0, i32 2
  %7 = load i32, ptr %6, align 4
  %8 = and i32 %7, 256
  %9 = icmp ne i32 %8, 0
  %10 = zext i1 %9 to i32
  ret i32 %10
}

; Function Attrs: nounwind uwtable
define internal i32 @ZSTD_cpuid_bmi1(i64 %0, i64 %1) #0 {
  %3 = alloca %struct.ZSTD_cpuid_t, align 4
  %4 = getelementptr inbounds { i64, i64 }, ptr %3, i32 0, i32 0
  store i64 %0, ptr %4, align 4
  %5 = getelementptr inbounds { i64, i64 }, ptr %3, i32 0, i32 1
  store i64 %1, ptr %5, align 4
  %6 = getelementptr inbounds %struct.ZSTD_cpuid_t, ptr %3, i32 0, i32 2
  %7 = load i32, ptr %6, align 4
  %8 = and i32 %7, 8
  %9 = icmp ne i32 %8, 0
  %10 = zext i1 %9 to i32
  ret i32 %10
}

; Function Attrs: nounwind uwtable
define internal { i64, i64 } @ZSTD_cpuid() #0 {
  %1 = alloca %struct.ZSTD_cpuid_t, align 4
  %2 = alloca i32, align 4
  %3 = alloca i32, align 4
  %4 = alloca i32, align 4
  %5 = alloca i32, align 4
  %6 = alloca i32, align 4
  %7 = alloca i32, align 4
  %8 = alloca i32, align 4
  store i32 0, ptr %2, align 4
  store i32 0, ptr %3, align 4
  store i32 0, ptr %4, align 4
  store i32 0, ptr %5, align 4
  %9 = call i32 asm "cpuid", "={ax},{ax},~{ebx},~{ecx},~{edx},~{dirflag},~{fpsr},~{flags}"(i32 0) #10, !srcloc !5
  store i32 %9, ptr %6, align 4
  %10 = load i32, ptr %6, align 4
  %11 = icmp uge i32 %10, 1
  br i1 %11, label %12, label %17

12:                                               ; preds = %0
  %13 = call { i32, i32, i32 } asm "cpuid", "={ax},={cx},={dx},{ax},~{ebx},~{dirflag},~{fpsr},~{flags}"(i32 1) #10, !srcloc !6
  %14 = extractvalue { i32, i32, i32 } %13, 0
  %15 = extractvalue { i32, i32, i32 } %13, 1
  %16 = extractvalue { i32, i32, i32 } %13, 2
  store i32 %14, ptr %7, align 4
  store i32 %15, ptr %2, align 4
  store i32 %16, ptr %3, align 4
  br label %17

17:                                               ; preds = %12, %0
  %18 = load i32, ptr %6, align 4
  %19 = icmp uge i32 %18, 7
  br i1 %19, label %20, label %25

20:                                               ; preds = %17
  %21 = call { i32, i32, i32 } asm "cpuid", "={ax},={bx},={cx},{ax},{cx},~{edx},~{dirflag},~{fpsr},~{flags}"(i32 7, i32 0) #10, !srcloc !7
  %22 = extractvalue { i32, i32, i32 } %21, 0
  %23 = extractvalue { i32, i32, i32 } %21, 1
  %24 = extractvalue { i32, i32, i32 } %21, 2
  store i32 %22, ptr %8, align 4
  store i32 %23, ptr %4, align 4
  store i32 %24, ptr %5, align 4
  br label %25

25:                                               ; preds = %20, %17
  %26 = load i32, ptr %2, align 4
  %27 = getelementptr inbounds %struct.ZSTD_cpuid_t, ptr %1, i32 0, i32 0
  store i32 %26, ptr %27, align 4
  %28 = load i32, ptr %3, align 4
  %29 = getelementptr inbounds %struct.ZSTD_cpuid_t, ptr %1, i32 0, i32 1
  store i32 %28, ptr %29, align 4
  %30 = load i32, ptr %4, align 4
  %31 = getelementptr inbounds %struct.ZSTD_cpuid_t, ptr %1, i32 0, i32 2
  store i32 %30, ptr %31, align 4
  %32 = load i32, ptr %5, align 4
  %33 = getelementptr inbounds %struct.ZSTD_cpuid_t, ptr %1, i32 0, i32 3
  store i32 %32, ptr %33, align 4
  %34 = load { i64, i64 }, ptr %1, align 4
  ret { i64, i64 } %34
}

; Function Attrs: nounwind uwtable
define dso_local i64 @ZSTD_CCtx_reset(ptr noundef %0, i32 noundef %1) #0 {
  %3 = alloca i64, align 8
  %4 = alloca ptr, align 8
  %5 = alloca i32, align 4
  store ptr %0, ptr %4, align 8
  store i32 %1, ptr %5, align 4
  %6 = load i32, ptr %5, align 4
  %7 = icmp eq i32 %6, 1
  br i1 %7, label %11, label %8

8:                                                ; preds = %2
  %9 = load i32, ptr %5, align 4
  %10 = icmp eq i32 %9, 3
  br i1 %10, label %11, label %16

11:                                               ; preds = %8, %2
  %12 = load ptr, ptr %4, align 8
  %13 = getelementptr inbounds %struct.ZSTD_CCtx_s, ptr %12, i32 0, i32 37
  store i32 0, ptr %13, align 8
  %14 = load ptr, ptr %4, align 8
  %15 = getelementptr inbounds %struct.ZSTD_CCtx_s, ptr %14, i32 0, i32 10
  store i64 0, ptr %15, align 8
  br label %16

16:                                               ; preds = %11, %8
  %17 = load i32, ptr %5, align 4
  %18 = icmp eq i32 %17, 2
  br i1 %18, label %22, label %19

19:                                               ; preds = %16
  %20 = load i32, ptr %5, align 4
  %21 = icmp eq i32 %20, 3
  br i1 %21, label %22, label %35

22:                                               ; preds = %19, %16
  %23 = load ptr, ptr %4, align 8
  %24 = getelementptr inbounds %struct.ZSTD_CCtx_s, ptr %23, i32 0, i32 37
  %25 = load i32, ptr %24, align 8
  %26 = icmp ne i32 %25, 0
  br i1 %26, label %27, label %28

27:                                               ; preds = %22
  store i64 -60, ptr %3, align 8
  br label %36

28:                                               ; preds = %22
  %29 = load ptr, ptr %4, align 8
  call void @ZSTD_clearAllDicts(ptr noundef %29)
  %30 = load ptr, ptr %4, align 8
  %31 = getelementptr inbounds %struct.ZSTD_CCtx_s, ptr %30, i32 0, i32 47
  call void @llvm.memset.p0.i64(ptr align 8 %31, i8 0, i64 32, i1 false)
  %32 = load ptr, ptr %4, align 8
  %33 = getelementptr inbounds %struct.ZSTD_CCtx_s, ptr %32, i32 0, i32 3
  %34 = call i64 @ZSTD_CCtxParams_reset(ptr noundef %33)
  store i64 %34, ptr %3, align 8
  br label %36

35:                                               ; preds = %19
  store i64 0, ptr %3, align 8
  br label %36

36:                                               ; preds = %35, %28, %27
  %37 = load i64, ptr %3, align 8
  ret i64 %37
}

; Function Attrs: nounwind uwtable
define internal i32 @ZSTD_cpuSupportsBmi2() #0 {
  %1 = alloca %struct.ZSTD_cpuid_t, align 4
  %2 = call { i64, i64 } @ZSTD_cpuid()
  %3 = getelementptr inbounds { i64, i64 }, ptr %1, i32 0, i32 0
  %4 = extractvalue { i64, i64 } %2, 0
  store i64 %4, ptr %3, align 4
  %5 = getelementptr inbounds { i64, i64 }, ptr %1, i32 0, i32 1
  %6 = extractvalue { i64, i64 } %2, 1
  store i64 %6, ptr %5, align 4
  %7 = getelementptr inbounds { i64, i64 }, ptr %1, i32 0, i32 0
  %8 = load i64, ptr %7, align 4
  %9 = getelementptr inbounds { i64, i64 }, ptr %1, i32 0, i32 1
  %10 = load i64, ptr %9, align 4
  %11 = call i32 @ZSTD_cpuid_bmi1(i64 %8, i64 %10)
  %12 = icmp ne i32 %11, 0
  br i1 %12, label %13, label %20

13:                                               ; preds = %0
  %14 = getelementptr inbounds { i64, i64 }, ptr %1, i32 0, i32 0
  %15 = load i64, ptr %14, align 4
  %16 = getelementptr inbounds { i64, i64 }, ptr %1, i32 0, i32 1
  %17 = load i64, ptr %16, align 4
  %18 = call i32 @ZSTD_cpuid_bmi2(i64 %15, i64 %17)
  %19 = icmp ne i32 %18, 0
  br label %20

20:                                               ; preds = %13, %0
  %21 = phi i1 [ false, %0 ], [ %19, %13 ]
  %22 = zext i1 %21 to i32
  ret i32 %22
}

; Function Attrs: nounwind uwtable
define internal void @ZSTD_initCCtx(ptr noundef %0, ptr noundef byval(%struct.ZSTD_customMem) align 8 %1) #0 {
  %3 = alloca ptr, align 8
  %4 = alloca i64, align 8
  store ptr %0, ptr %3, align 8
  %5 = load ptr, ptr %3, align 8
  call void @llvm.memset.p0.i64(ptr align 8 %5, i8 0, i64 5240, i1 false)
  %6 = load ptr, ptr %3, align 8
  %7 = getelementptr inbounds %struct.ZSTD_CCtx_s, ptr %6, i32 0, i32 14
  call void @llvm.memcpy.p0.p0.i64(ptr align 8 %7, ptr align 8 %1, i64 24, i1 false)
  %8 = call i32 @ZSTD_cpuSupportsBmi2()
  %9 = load ptr, ptr %3, align 8
  %10 = getelementptr inbounds %struct.ZSTD_CCtx_s, ptr %9, i32 0, i32 2
  store i32 %8, ptr %10, align 8
  %11 = load ptr, ptr %3, align 8
  %12 = call i64 @ZSTD_CCtx_reset(ptr noundef %11, i32 noundef 2)
  store i64 %12, ptr %4, align 8
  ret void
}

; Function Attrs: nounwind uwtable
define internal ptr @ZSTD_customMalloc(i64 noundef %0, ptr noundef byval(%struct.ZSTD_customMem) align 8 %1) #0 {
  %3 = alloca ptr, align 8
  %4 = alloca i64, align 8
  store i64 %0, ptr %4, align 8
  %5 = getelementptr inbounds %struct.ZSTD_customMem, ptr %1, i32 0, i32 0
  %6 = load ptr, ptr %5, align 8
  %7 = icmp ne ptr %6, null
  br i1 %7, label %8, label %15

8:                                                ; preds = %2
  %9 = getelementptr inbounds %struct.ZSTD_customMem, ptr %1, i32 0, i32 0
  %10 = load ptr, ptr %9, align 8
  %11 = getelementptr inbounds %struct.ZSTD_customMem, ptr %1, i32 0, i32 2
  %12 = load ptr, ptr %11, align 8
  %13 = load i64, ptr %4, align 8
  %14 = call ptr %10(ptr noundef %12, i64 noundef %13)
  store ptr %14, ptr %3, align 8
  br label %18

15:                                               ; preds = %2
  %16 = load i64, ptr %4, align 8
  %17 = call noalias ptr @malloc(i64 noundef %16) #9
  store ptr %17, ptr %3, align 8
  br label %18

18:                                               ; preds = %15, %8
  %19 = load ptr, ptr %3, align 8
  ret ptr %19
}

; Function Attrs: nounwind uwtable
define dso_local ptr @ZSTD_createCCtx_advanced(ptr noundef byval(%struct.ZSTD_customMem) align 8 %0) #0 {
  %2 = alloca ptr, align 8
  %3 = alloca ptr, align 8
  %4 = getelementptr inbounds %struct.ZSTD_customMem, ptr %0, i32 0, i32 0
  %5 = load ptr, ptr %4, align 8
  %6 = icmp ne ptr %5, null
  %7 = xor i1 %6, true
  %8 = zext i1 %7 to i32
  %9 = getelementptr inbounds %struct.ZSTD_customMem, ptr %0, i32 0, i32 1
  %10 = load ptr, ptr %9, align 8
  %11 = icmp ne ptr %10, null
  %12 = xor i1 %11, true
  %13 = zext i1 %12 to i32
  %14 = xor i32 %8, %13
  %15 = icmp ne i32 %14, 0
  br i1 %15, label %16, label %17

16:                                               ; preds = %1
  store ptr null, ptr %2, align 8
  br label %25

17:                                               ; preds = %1
  %18 = call ptr @ZSTD_customMalloc(i64 noundef 5240, ptr noundef byval(%struct.ZSTD_customMem) align 8 %0)
  store ptr %18, ptr %3, align 8
  %19 = load ptr, ptr %3, align 8
  %20 = icmp ne ptr %19, null
  br i1 %20, label %22, label %21

21:                                               ; preds = %17
  store ptr null, ptr %2, align 8
  br label %25

22:                                               ; preds = %17
  %23 = load ptr, ptr %3, align 8
  call void @ZSTD_initCCtx(ptr noundef %23, ptr noundef byval(%struct.ZSTD_customMem) align 8 %0)
  %24 = load ptr, ptr %3, align 8
  store ptr %24, ptr %2, align 8
  br label %25

25:                                               ; preds = %22, %21, %16
  %26 = load ptr, ptr %2, align 8
  ret ptr %26
}