; Function Attrs: nounwind uwtable
define dso_local ptr @ZSTD_createCCtx_advanced(ptr noundef readonly byval(%struct.ZSTD_customMem) align 8 captures(none) %0) local_unnamed_addr #1 {
  %2 = load ptr, ptr %0, align 8
  %.not = icmp eq ptr %2, null
  %3 = getelementptr inbounds nuw i8, ptr %0, i64 8
  %4 = load ptr, ptr %3, align 8
  %.not5 = icmp eq ptr %4, null
  %5 = xor i1 %.not, %.not5
  br i1 %5, label %30, label %6

6:                                                ; preds = %1
  br i1 %.not, label %10, label %7

7:                                                ; preds = %6
  %8 = getelementptr inbounds nuw i8, ptr %0, i64 16
  %.val7 = load ptr, ptr %8, align 8
  %9 = tail call ptr %2(ptr noundef %.val7, i64 noundef 5240) #27
  br label %ZSTD_customMalloc.exit

10:                                               ; preds = %6
  %11 = tail call noalias dereferenceable_or_null(5240) ptr @malloc(i64 noundef 5240) #28
  br label %ZSTD_customMalloc.exit

ZSTD_customMalloc.exit:                           ; preds = %7, %10
  %.0.i = phi ptr [ %9, %7 ], [ %11, %10 ]
  %.not6 = icmp eq ptr %.0.i, null
  br i1 %.not6, label %30, label %12

12:                                               ; preds = %ZSTD_customMalloc.exit
  tail call void @llvm.memset.p0.i64(ptr noundef nonnull align 8 dereferenceable(5240) %.0.i, i8 0, i64 5240, i1 false)
  %13 = getelementptr inbounds nuw i8, ptr %.0.i, i64 848
  call void @llvm.memcpy.p0.p0.i64(ptr noundef nonnull align 8 dereferenceable(24) %13, ptr noundef nonnull align 8 dereferenceable(24) %0, i64 24, i1 false)
  %14 = tail call i32 asm "cpuid", "={ax},{ax},~{ebx},~{ecx},~{edx},~{dirflag},~{fpsr},~{flags}"(i32 0) #26, !srcloc !5
  %.not.i.i.i = icmp eq i32 %14, 0
  br i1 %.not.i.i.i, label %ZSTD_initCCtx.exit, label %15

15:                                               ; preds = %12
  %16 = tail call { i32, i32, i32 } asm "cpuid", "={ax},={cx},={dx},{ax},~{ebx},~{dirflag},~{fpsr},~{flags}"(i32 1) #26, !srcloc !6
  %17 = icmp ugt i32 %14, 6
  br i1 %17, label %ZSTD_cpuid.exit.i.i, label %ZSTD_initCCtx.exit

ZSTD_cpuid.exit.i.i:                              ; preds = %15
  %18 = tail call { i32, i32, i32 } asm "cpuid", "={ax},={bx},={cx},{ax},{cx},~{edx},~{dirflag},~{fpsr},~{flags}"(i32 7, i32 0) #26, !srcloc !7
  %19 = extractvalue { i32, i32, i32 } %18, 1
  %20 = and i32 %19, 8
  %.not.i.i = icmp eq i32 %20, 0
  br i1 %.not.i.i, label %ZSTD_initCCtx.exit, label %21

21:                                               ; preds = %ZSTD_cpuid.exit.i.i
  %22 = lshr i32 %19, 8
  %23 = and i32 %22, 1
  br label %ZSTD_initCCtx.exit

ZSTD_initCCtx.exit:                               ; preds = %12, %15, %ZSTD_cpuid.exit.i.i, %21
  %24 = phi i32 [ 0, %ZSTD_cpuid.exit.i.i ], [ %23, %21 ], [ 0, %15 ], [ 0, %12 ]
  %25 = getelementptr inbounds nuw i8, ptr %.0.i, i64 8
  store i32 %24, ptr %25, align 8
  tail call fastcc void @ZSTD_clearAllDicts(ptr noundef nonnull %.0.i)
  %26 = getelementptr inbounds nuw i8, ptr %.0.i, i64 5208
  tail call void @llvm.memset.p0.i64(ptr noundef nonnull align 8 dereferenceable(32) %26, i8 0, i64 32, i1 false)
  %27 = getelementptr inbounds nuw i8, ptr %.0.i, i64 16
  tail call void @llvm.memset.p0.i64(ptr noundef nonnull align 8 dereferenceable(208) %27, i8 0, i64 208, i1 false)
  %28 = getelementptr inbounds nuw i8, ptr %.0.i, i64 60
  store i32 3, ptr %28, align 4
  %29 = getelementptr inbounds nuw i8, ptr %.0.i, i64 48
  store i32 1, ptr %29, align 8
  br label %30

30:                                               ; preds = %ZSTD_customMalloc.exit, %1, %ZSTD_initCCtx.exit
  %.0 = phi ptr [ %.0.i, %ZSTD_initCCtx.exit ], [ null, %1 ], [ null, %ZSTD_customMalloc.exit ]
  ret ptr %.0
}